target datalayout = "e-m:e-p270:32:32-p271:32:32-p272:64:64-i64:64-i128:128-f80:128-n8:16:32:64-S128"
target triple = "x86_64-pc-linux-gnu"

; Function Attrs: nounwind uwtable
define dso_local float @thinplate_color_pos(float noundef %0, float noundef %1, float noundef %2) #0 {
  %4 = alloca float, align 4
  %5 = alloca float, align 4
  %6 = alloca float, align 4
  %7 = alloca float, align 4
  %8 = alloca float, align 4
  %9 = alloca i32, align 4
  store float %0, ptr %4, align 4, !tbaa !24
  store float %1, ptr %5, align 4, !tbaa !24
  store float %2, ptr %6, align 4, !tbaa !24
  call void @llvm.lifetime.start.p0(i64 4, ptr %7) #9
  store float 0x400921DA80000000, ptr %7, align 4, !tbaa !24
  call void @llvm.lifetime.start.p0(i64 4, ptr %8) #9
  %10 = load float, ptr %6, align 4, !tbaa !24
  %11 = load float, ptr %5, align 4, !tbaa !24
  %12 = call reassoc nsz arcp contract afn float @llvm.atan2.f32(float %10, float %11)
  %13 = fadd reassoc nsz arcp contract afn float %12, 0x400921DA80000000
  store float %13, ptr %8, align 4, !tbaa !24
  call void @llvm.lifetime.start.p0(i64 4, ptr %9) #9
  %14 = load float, ptr %8, align 4, !tbaa !24
  %15 = fmul reassoc nsz arcp contract afn float 4.000000e+00, %14
  %16 = fdiv reassoc nsz arcp contract afn float %15, 0x401921DA80000000
  %17 = fptosi float %16 to i32
  store i32 %17, ptr %9, align 4, !tbaa !12
  %18 = load i32, ptr %9, align 4, !tbaa !12
  %19 = sitofp i32 %18 to double
  %20 = fmul reassoc nsz arcp contract afn double 2.560000e+02, %19
  %21 = load float, ptr %4, align 4, !tbaa !24
  %22 = fpext reassoc nsz arcp contract afn float %21 to double
  %23 = fadd reassoc nsz arcp contract afn double %20, %22
  %24 = fptrunc reassoc nsz arcp contract afn double %23 to float
  call void @llvm.lifetime.end.p0(i64 4, ptr %9) #9
  call void @llvm.lifetime.end.p0(i64 4, ptr %8) #9
  call void @llvm.lifetime.end.p0(i64 4, ptr %7) #9
  ret float %24
}