; Function Attrs: mustprogress nofree norecurse nosync nounwind willreturn memory(none) uwtable
define dso_local float @thinplate_color_pos(float noundef %0, float noundef %1, float noundef %2) local_unnamed_addr #7 {
  %4 = tail call reassoc nsz arcp contract afn float @llvm.atan2.f32(float %2, float %1)
  %5 = fmul reassoc nsz arcp contract afn float %4, 0x3FE45F4B00000000
  %6 = fadd reassoc nsz arcp contract afn float %5, 2.000000e+00
  %7 = fptosi float %6 to i32
  %8 = sitofp i32 %7 to double
  %9 = fmul reassoc nsz arcp contract afn double %8, 2.560000e+02
  %10 = fpext reassoc nsz arcp contract afn float %0 to double
  %11 = fadd reassoc nsz arcp contract afn double %9, %10
  %12 = fptrunc reassoc nsz arcp contract afn double %11 to float
  ret float %12
}